; Function Attrs: mustprogress uwtable
define void @_ZN3zmq31shared_message_memory_allocator12call_dec_refEPvS1_(ptr noundef readnone captures(none) %0, ptr noundef %1) local_unnamed_addr #2 align 2 {
  %.not = icmp eq ptr %1, null
  br i1 %.not, label %3, label %8, !prof !14

3:                                                ; preds = %2
  %4 = load ptr, ptr @stderr, align 8, !tbaa !15
  %5 = tail call i32 (ptr, ptr, ...) @fprintf(ptr noundef %4, ptr noundef nonnull @.str.3, ptr noundef nonnull @.str.4, ptr noundef nonnull @.str.1, i32 noundef 105) #13
  %6 = load ptr, ptr @stderr, align 8, !tbaa !15
  %7 = tail call i32 @fflush(ptr noundef %6)
  tail call void @_ZN3zmq9zmq_abortEPKc(ptr noundef nonnull @.str.4)
  br label %8

8:                                                ; preds = %2, %3
  %9 = atomicrmw sub ptr %1, i32 1 acq_rel, align 4
  %.not5 = icmp eq i32 %9, 1
  br i1 %.not5, label %10, label %11

10:                                               ; preds = %8
  tail call void @free(ptr noundef %1) #11
  br label %11

11:                                               ; preds = %10, %8
  ret void
}